target datalayout = "e-m:e-p270:32:32-p271:32:32-p272:64:64-i64:64-i128:128-f80:128-n8:16:32:64-S128"
target triple = "x86_64-pc-linux-gnu"

%struct.nghttp2_stream = type { i32, %struct.nghttp2_pq_entry, i64, i64, i64, i64, ptr, ptr, ptr, i64, i32, i32, i32, i32, i32, i32, i32, i16, i32, i8, i8, i8, i8, i8, i8 }
%struct.nghttp2_pq_entry = type { i64 }

; Function Attrs: nounwind uwtable
define hidden void @nghttp2_stream_init(ptr noundef %0, i32 noundef %1, i8 noundef zeroext %2, i32 noundef %3, i32 noundef %4, i32 noundef %5, ptr noundef %6) #0 {
  %8 = alloca ptr, align 8
  %9 = alloca i32, align 4
  %10 = alloca i8, align 1
  %11 = alloca i32, align 4
  %12 = alloca i32, align 4
  %13 = alloca i32, align 4
  %14 = alloca ptr, align 8
  store ptr %0, ptr %8, align 8, !tbaa !3
  store i32 %1, ptr %9, align 4, !tbaa !8
  store i8 %2, ptr %10, align 1, !tbaa !10
  store i32 %3, ptr %11, align 4, !tbaa !8
  store i32 %4, ptr %12, align 4, !tbaa !8
  store i32 %5, ptr %13, align 4, !tbaa !8
  store ptr %6, ptr %14, align 8, !tbaa !11
  %15 = load i32, ptr %9, align 4, !tbaa !8
  %16 = load ptr, ptr %8, align 8, !tbaa !3
  %17 = getelementptr inbounds nuw %struct.nghttp2_stream, ptr %16, i32 0, i32 10
  store i32 %15, ptr %17, align 8, !tbaa !12
  %18 = load i8, ptr %10, align 1, !tbaa !10
  %19 = load ptr, ptr %8, align 8, !tbaa !3
  %20 = getelementptr inbounds nuw %struct.nghttp2_stream, ptr %19, i32 0, i32 19
  store i8 %18, ptr %20, align 4, !tbaa !18
  %21 = load i32, ptr %11, align 4, !tbaa !8
  %22 = load ptr, ptr %8, align 8, !tbaa !3
  %23 = getelementptr inbounds nuw %struct.nghttp2_stream, ptr %22, i32 0, i32 0
  store i32 %21, ptr %23, align 8, !tbaa !19
  %24 = load ptr, ptr %8, align 8, !tbaa !3
  %25 = getelementptr inbounds nuw %struct.nghttp2_stream, ptr %24, i32 0, i32 20
  store i8 0, ptr %25, align 1, !tbaa !20
  %26 = load ptr, ptr %14, align 8, !tbaa !11
  %27 = load ptr, ptr %8, align 8, !tbaa !3
  %28 = getelementptr inbounds nuw %struct.nghttp2_stream, ptr %27, i32 0, i32 7
  store ptr %26, ptr %28, align 8, !tbaa !21
  %29 = load ptr, ptr %8, align 8, !tbaa !3
  %30 = getelementptr inbounds nuw %struct.nghttp2_stream, ptr %29, i32 0, i32 8
  store ptr null, ptr %30, align 8, !tbaa !22
  %31 = load i32, ptr %12, align 4, !tbaa !8
  %32 = load ptr, ptr %8, align 8, !tbaa !3
  %33 = getelementptr inbounds nuw %struct.nghttp2_stream, ptr %32, i32 0, i32 11
  store i32 %31, ptr %33, align 4, !tbaa !23
  %34 = load i32, ptr %13, align 4, !tbaa !8
  %35 = load ptr, ptr %8, align 8, !tbaa !3
  %36 = getelementptr inbounds nuw %struct.nghttp2_stream, ptr %35, i32 0, i32 15
  store i32 %34, ptr %36, align 4, !tbaa !24
  %37 = load ptr, ptr %8, align 8, !tbaa !3
  %38 = getelementptr inbounds nuw %struct.nghttp2_stream, ptr %37, i32 0, i32 12
  store i32 0, ptr %38, align 8, !tbaa !25
  %39 = load ptr, ptr %8, align 8, !tbaa !3
  %40 = getelementptr inbounds nuw %struct.nghttp2_stream, ptr %39, i32 0, i32 13
  store i32 0, ptr %40, align 4, !tbaa !26
  %41 = load ptr, ptr %8, align 8, !tbaa !3
  %42 = getelementptr inbounds nuw %struct.nghttp2_stream, ptr %41, i32 0, i32 14
  store i32 0, ptr %42, align 8, !tbaa !27
  %43 = load ptr, ptr %8, align 8, !tbaa !3
  %44 = getelementptr inbounds nuw %struct.nghttp2_stream, ptr %43, i32 0, i32 22
  store i8 0, ptr %44, align 1, !tbaa !28
  %45 = load ptr, ptr %8, align 8, !tbaa !3
  %46 = getelementptr inbounds nuw %struct.nghttp2_stream, ptr %45, i32 0, i32 6
  store ptr null, ptr %46, align 8, !tbaa !29
  %47 = load ptr, ptr %8, align 8, !tbaa !3
  %48 = getelementptr inbounds nuw %struct.nghttp2_stream, ptr %47, i32 0, i32 18
  store i32 0, ptr %48, align 8, !tbaa !30
  %49 = load ptr, ptr %8, align 8, !tbaa !3
  %50 = getelementptr inbounds nuw %struct.nghttp2_stream, ptr %49, i32 0, i32 2
  store i64 -1, ptr %50, align 8, !tbaa !31
  %51 = load ptr, ptr %8, align 8, !tbaa !3
  %52 = getelementptr inbounds nuw %struct.nghttp2_stream, ptr %51, i32 0, i32 3
  store i64 0, ptr %52, align 8, !tbaa !32
  %53 = load ptr, ptr %8, align 8, !tbaa !3
  %54 = getelementptr inbounds nuw %struct.nghttp2_stream, ptr %53, i32 0, i32 17
  store i16 -1, ptr %54, align 4, !tbaa !33
  %55 = load ptr, ptr %8, align 8, !tbaa !3
  %56 = getelementptr inbounds nuw %struct.nghttp2_stream, ptr %55, i32 0, i32 21
  store i8 0, ptr %56, align 2, !tbaa !34
  %57 = load ptr, ptr %8, align 8, !tbaa !3
  %58 = getelementptr inbounds nuw %struct.nghttp2_stream, ptr %57, i32 0, i32 4
  store i64 0, ptr %58, align 8, !tbaa !35
  %59 = load ptr, ptr %8, align 8, !tbaa !3
  %60 = getelementptr inbounds nuw %struct.nghttp2_stream, ptr %59, i32 0, i32 16
  store i32 0, ptr %60, align 8, !tbaa !36
  %61 = load ptr, ptr %8, align 8, !tbaa !3
  %62 = getelementptr inbounds nuw %struct.nghttp2_stream, ptr %61, i32 0, i32 5
  store i64 0, ptr %62, align 8, !tbaa !37
  %63 = load ptr, ptr %8, align 8, !tbaa !3
  %64 = getelementptr inbounds nuw %struct.nghttp2_stream, ptr %63, i32 0, i32 9
  store i64 0, ptr %64, align 8, !tbaa !38
  %65 = load ptr, ptr %8, align 8, !tbaa !3
  %66 = getelementptr inbounds nuw %struct.nghttp2_stream, ptr %65, i32 0, i32 24
  store i8 3, ptr %66, align 1, !tbaa !39
  %67 = load ptr, ptr %8, align 8, !tbaa !3
  %68 = getelementptr inbounds nuw %struct.nghttp2_stream, ptr %67, i32 0, i32 23
  store i8 3, ptr %68, align 8, !tbaa !40
  ret void
}