; Function Attrs: mustprogress nofree norecurse nosync nounwind willreturn memory(argmem: write) uwtable
define hidden void @nghttp2_stream_init(ptr noundef writeonly captures(none) initializes((0, 4), (16, 110), (112, 122)) %0, i32 noundef %1, i8 noundef zeroext %2, i32 noundef %3, i32 noundef %4, i32 noundef %5, ptr noundef %6) local_unnamed_addr #0 {
  %8 = getelementptr inbounds nuw i8, ptr %0, i64 80
  store i32 %1, ptr %8, align 8, !tbaa !3
  %9 = getelementptr inbounds nuw i8, ptr %0, i64 116
  store i8 %2, ptr %9, align 4, !tbaa !14
  store i32 %3, ptr %0, align 8, !tbaa !15
  %10 = getelementptr inbounds nuw i8, ptr %0, i64 117
  store i8 0, ptr %10, align 1, !tbaa !16
  %11 = getelementptr inbounds nuw i8, ptr %0, i64 56
  store ptr %6, ptr %11, align 8, !tbaa !17
  %12 = getelementptr inbounds nuw i8, ptr %0, i64 64
  store ptr null, ptr %12, align 8, !tbaa !18
  %13 = getelementptr inbounds nuw i8, ptr %0, i64 84
  store i32 %4, ptr %13, align 4, !tbaa !19
  %14 = getelementptr inbounds nuw i8, ptr %0, i64 100
  store i32 %5, ptr %14, align 4, !tbaa !20
  %15 = getelementptr inbounds nuw i8, ptr %0, i64 88
  store i32 0, ptr %15, align 8, !tbaa !21
  %16 = getelementptr inbounds nuw i8, ptr %0, i64 92
  store i32 0, ptr %16, align 4, !tbaa !22
  %17 = getelementptr inbounds nuw i8, ptr %0, i64 96
  store i32 0, ptr %17, align 8, !tbaa !23
  %18 = getelementptr inbounds nuw i8, ptr %0, i64 119
  store i8 0, ptr %18, align 1, !tbaa !24
  %19 = getelementptr inbounds nuw i8, ptr %0, i64 48
  store ptr null, ptr %19, align 8, !tbaa !25
  %20 = getelementptr inbounds nuw i8, ptr %0, i64 112
  store i32 0, ptr %20, align 8, !tbaa !26
  %21 = getelementptr inbounds nuw i8, ptr %0, i64 16
  store i64 -1, ptr %21, align 8, !tbaa !27
  %22 = getelementptr inbounds nuw i8, ptr %0, i64 24
  store i64 0, ptr %22, align 8, !tbaa !28
  %23 = getelementptr inbounds nuw i8, ptr %0, i64 108
  store i16 -1, ptr %23, align 4, !tbaa !29
  %24 = getelementptr inbounds nuw i8, ptr %0, i64 118
  store i8 0, ptr %24, align 2, !tbaa !30
  %25 = getelementptr inbounds nuw i8, ptr %0, i64 32
  %26 = getelementptr inbounds nuw i8, ptr %0, i64 104
  store i32 0, ptr %26, align 8, !tbaa !31
  %27 = getelementptr inbounds nuw i8, ptr %0, i64 72
  store i64 0, ptr %27, align 8, !tbaa !32
  %28 = getelementptr inbounds nuw i8, ptr %0, i64 121
  tail call void @llvm.memset.p0.i64(ptr noundef nonnull align 8 dereferenceable(16) %25, i8 0, i64 16, i1 false)
  store i8 3, ptr %28, align 1, !tbaa !33
  %29 = getelementptr inbounds nuw i8, ptr %0, i64 120
  store i8 3, ptr %29, align 8, !tbaa !34
  ret void
}